; Function Attrs: mustprogress nounwind uwtable
define hidden void @_ZN5osgeo4proj11NetworkFileD2Ev(ptr noundef nonnull align 8 dereferenceable(241) initializes((0, 8)) %0) unnamed_addr #7 align 2 personality ptr @__gxx_personality_v0 {
  store ptr getelementptr inbounds nuw inrange(-16, 64) (i8, ptr @_ZTVN5osgeo4proj11NetworkFileE, i64 16), ptr %0, align 8, !tbaa !3
  %2 = getelementptr inbounds nuw i8, ptr %0, i64 120
  %3 = load ptr, ptr %2, align 8, !tbaa !199
  %.not = icmp eq ptr %3, null
  br i1 %.not, label %11, label %4

4:                                                ; preds = %1
  %5 = getelementptr inbounds nuw i8, ptr %0, i64 80
  %6 = load ptr, ptr %5, align 8, !tbaa !195
  %7 = getelementptr inbounds nuw i8, ptr %6, i64 432
  %8 = load ptr, ptr %7, align 8, !tbaa !192
  %9 = getelementptr inbounds nuw i8, ptr %6, i64 456
  %10 = load ptr, ptr %9, align 8, !tbaa !185
  invoke void %8(ptr noundef nonnull %6, ptr noundef nonnull %3, ptr noundef %10)
          to label %11 unwind label %39

11:                                               ; preds = %4, %1
  %12 = getelementptr inbounds nuw i8, ptr %0, i64 200
  %13 = load ptr, ptr %12, align 8, !tbaa !18
  %14 = getelementptr inbounds nuw i8, ptr %0, i64 216
  %15 = icmp eq ptr %13, %14
  br i1 %15, label %_ZNKSt7__cxx1112basic_stringIcSt11char_traitsIcESaIcEE11_M_is_localEv.exit.thread.i.i.i, label %_ZNKSt7__cxx1112basic_stringIcSt11char_traitsIcESaIcEE11_M_is_localEv.exit.i.i.i

_ZNKSt7__cxx1112basic_stringIcSt11char_traitsIcESaIcEE11_M_is_localEv.exit.thread.i.i.i: ; preds = %11
  %16 = getelementptr inbounds nuw i8, ptr %0, i64 208
  %17 = load i64, ptr %16, align 8, !tbaa !22
  %18 = icmp ult i64 %17, 16
  tail call void @llvm.assume(i1 %18)
  br label %_ZNSt7__cxx1112basic_stringIcSt11char_traitsIcESaIcEED2Ev.exit.i

_ZNKSt7__cxx1112basic_stringIcSt11char_traitsIcESaIcEE11_M_is_localEv.exit.i.i.i: ; preds = %11
  %19 = load i64, ptr %14, align 8, !tbaa !23
  %20 = add i64 %19, 1
  tail call void @_ZdlPvm(ptr noundef %13, i64 noundef %20) #31
  br label %_ZNSt7__cxx1112basic_stringIcSt11char_traitsIcESaIcEED2Ev.exit.i

_ZNSt7__cxx1112basic_stringIcSt11char_traitsIcESaIcEED2Ev.exit.i: ; preds = %_ZNKSt7__cxx1112basic_stringIcSt11char_traitsIcESaIcEE11_M_is_localEv.exit.i.i.i, %_ZNKSt7__cxx1112basic_stringIcSt11char_traitsIcESaIcEE11_M_is_localEv.exit.thread.i.i.i
  %21 = getelementptr inbounds nuw i8, ptr %0, i64 168
  %22 = load ptr, ptr %21, align 8, !tbaa !18
  %23 = getelementptr inbounds nuw i8, ptr %0, i64 184
  %24 = icmp eq ptr %22, %23
  br i1 %24, label %_ZNKSt7__cxx1112basic_stringIcSt11char_traitsIcESaIcEE11_M_is_localEv.exit.thread.i.i2.i, label %_ZNKSt7__cxx1112basic_stringIcSt11char_traitsIcESaIcEE11_M_is_localEv.exit.i.i1.i

_ZNKSt7__cxx1112basic_stringIcSt11char_traitsIcESaIcEE11_M_is_localEv.exit.thread.i.i2.i: ; preds = %_ZNSt7__cxx1112basic_stringIcSt11char_traitsIcESaIcEED2Ev.exit.i
  %25 = getelementptr inbounds nuw i8, ptr %0, i64 176
  %26 = load i64, ptr %25, align 8, !tbaa !22
  %27 = icmp ult i64 %26, 16
  tail call void @llvm.assume(i1 %27)
  br label %_ZN5osgeo4proj14FilePropertiesD2Ev.exit

_ZNKSt7__cxx1112basic_stringIcSt11char_traitsIcESaIcEE11_M_is_localEv.exit.i.i1.i: ; preds = %_ZNSt7__cxx1112basic_stringIcSt11char_traitsIcESaIcEED2Ev.exit.i
  %28 = load i64, ptr %23, align 8, !tbaa !23
  %29 = add i64 %28, 1
  tail call void @_ZdlPvm(ptr noundef %22, i64 noundef %29) #31
  br label %_ZN5osgeo4proj14FilePropertiesD2Ev.exit

_ZN5osgeo4proj14FilePropertiesD2Ev.exit:          ; preds = %_ZNKSt7__cxx1112basic_stringIcSt11char_traitsIcESaIcEE11_M_is_localEv.exit.thread.i.i2.i, %_ZNKSt7__cxx1112basic_stringIcSt11char_traitsIcESaIcEE11_M_is_localEv.exit.i.i1.i
  %30 = getelementptr inbounds nuw i8, ptr %0, i64 88
  %31 = load ptr, ptr %30, align 8, !tbaa !18
  %32 = getelementptr inbounds nuw i8, ptr %0, i64 104
  %33 = icmp eq ptr %31, %32
  br i1 %33, label %_ZNKSt7__cxx1112basic_stringIcSt11char_traitsIcESaIcEE11_M_is_localEv.exit.thread.i.i, label %_ZNKSt7__cxx1112basic_stringIcSt11char_traitsIcESaIcEE11_M_is_localEv.exit.i.i

_ZNKSt7__cxx1112basic_stringIcSt11char_traitsIcESaIcEE11_M_is_localEv.exit.thread.i.i: ; preds = %_ZN5osgeo4proj14FilePropertiesD2Ev.exit
  %34 = getelementptr inbounds nuw i8, ptr %0, i64 96
  %35 = load i64, ptr %34, align 8, !tbaa !22
  %36 = icmp ult i64 %35, 16
  tail call void @llvm.assume(i1 %36)
  br label %_ZNSt7__cxx1112basic_stringIcSt11char_traitsIcESaIcEED2Ev.exit

_ZNKSt7__cxx1112basic_stringIcSt11char_traitsIcESaIcEE11_M_is_localEv.exit.i.i: ; preds = %_ZN5osgeo4proj14FilePropertiesD2Ev.exit
  %37 = load i64, ptr %32, align 8, !tbaa !23
  %38 = add i64 %37, 1
  tail call void @_ZdlPvm(ptr noundef %31, i64 noundef %38) #31
  br label %_ZNSt7__cxx1112basic_stringIcSt11char_traitsIcESaIcEED2Ev.exit

_ZNSt7__cxx1112basic_stringIcSt11char_traitsIcESaIcEED2Ev.exit: ; preds = %_ZNKSt7__cxx1112basic_stringIcSt11char_traitsIcESaIcEE11_M_is_localEv.exit.thread.i.i, %_ZNKSt7__cxx1112basic_stringIcSt11char_traitsIcESaIcEE11_M_is_localEv.exit.i.i
  tail call void @_ZN5osgeo4proj4FileD2Ev(ptr noundef nonnull align 8 dereferenceable(73) %0) #30
  ret void

39:                                               ; preds = %4
  %40 = landingpad { ptr, i32 }
          catch ptr null
  %41 = extractvalue { ptr, i32 } %40, 0
  tail call void @__clang_call_terminate(ptr %41) #35
  unreachable
}